target datalayout = "e-m:e-p270:32:32-p271:32:32-p272:64:64-i64:64-i128:128-f80:128-n8:16:32:64-S128"
target triple = "x86_64-pc-linux-gnu"

%struct._zend_accel_globals = type { i8, i8, i8, i8, i8, %struct._zend_accel_directives, ptr, ptr, [32 x i8], [32 x i8], i32, i8, i32, i8, i32, i64, i64, %struct._zend_array, i64, ptr, ptr, ptr, ptr, ptr }
%struct._zend_accel_directives = type { i64, i64, double, ptr, i64, i8, i8, i8, i8, i8, i8, i8, i8, i8, i8, i8, i64, i64, ptr, ptr, i64, i64, i64, i64, i64, ptr, ptr, ptr, i8, i8, i8, i8, ptr, ptr }
%struct._zend_array = type { %struct._zend_refcounted_h, %union.anon.0, i32, %union.anon.1, i32, i32, i32, i32, i64, ptr }
%struct._zend_refcounted_h = type { i32, %union.anon }
%union.anon = type { i32 }
%union.anon.0 = type { i32 }
%union.anon.1 = type { ptr }
%struct._zend_op_array = type { i8, [3 x i8], i32, ptr, ptr, ptr, i32, i32, ptr, ptr, ptr, ptr, i32, ptr, i32, i32, i32, ptr, ptr, ptr, ptr, ptr, i32, i32, ptr, ptr, ptr, i32, i32, i32, i32, ptr, ptr, [6 x ptr] }
%struct._zend_accel_shared_globals = type { i64, i64, i64, i64, i64, i64, %struct._zend_accel_hash, i64, i64, i64, i64, i8, i8, i32, i8, i8, i8, ptr, ptr, [2 x i32], ptr, ptr, %struct._zend_string_table }
%struct._zend_accel_hash = type { ptr, ptr, i32, i32, i32 }
%struct._zend_string_table = type { i32, i32, ptr, ptr, ptr, ptr }
%struct._zend_string = type { %struct._zend_refcounted_h, i64, i64, [1 x i8] }
%struct._zend_persistent_script = type { %struct._zend_script, i64, i32, i64, i8, i8, i8, i32, i32, ptr, ptr, ptr, i64, %struct.zend_persistent_script_dynamic_members }
%struct._zend_script = type { ptr, %struct._zend_op_array, %struct._zend_array, %struct._zend_array }
%struct.zend_persistent_script_dynamic_members = type { i64, i64, i32, i64 }

@accel_shared_globals = hidden global ptr null, align 8
@accel_globals = hidden global %struct._zend_accel_globals zeroinitializer, align 8
@.str.19 = private unnamed_addr constant [88 x i8] c"Internal error: wrong size calculation: %s start=0x%016zx, end=0x%016zx, real=0x%016zx\0A\00", align 1
@.str.20 = private unnamed_addr constant [6 x i8] c".phar\00", align 1
@.str.21 = private unnamed_addr constant [4 x i8] c"://\00", align 1
@.str.28 = private unnamed_addr constant [19 x i8] c"Cached script '%s'\00", align 1
@.str.99 = private unnamed_addr constant [139 x i8] c"Not enough entries in hash table for preloading. Consider increasing the value for the opcache.max_accelerated_files directive in php.ini.\00", align 1
@.str.100 = private unnamed_addr constant [128 x i8] c"Not enough shared memory for preloading. Consider increasing the value for the opcache.memory_consumption directive in php.ini.\00", align 1

; Function Attrs: alwaysinline nounwind uwtable
define internal zeroext i1 @is_phar_file(ptr noundef %0) #3 {
  %2 = alloca ptr, align 8
  store ptr %0, ptr %2, align 8, !tbaa !52
  %3 = load ptr, ptr %2, align 8, !tbaa !52
  %4 = icmp ne ptr %3, null
  br i1 %4, label %5, label %28

5:                                                ; preds = %1
  %6 = load ptr, ptr %2, align 8, !tbaa !52
  %7 = getelementptr inbounds nuw %struct._zend_string, ptr %6, i32 0, i32 2
  %8 = load i64, ptr %7, align 8, !tbaa !63
  %9 = icmp uge i64 %8, 6
  br i1 %9, label %10, label %28

10:                                               ; preds = %5
  %11 = load ptr, ptr %2, align 8, !tbaa !52
  %12 = getelementptr inbounds nuw %struct._zend_string, ptr %11, i32 0, i32 3
  %13 = getelementptr inbounds [1 x i8], ptr %12, i64 0, i64 0
  %14 = load ptr, ptr %2, align 8, !tbaa !52
  %15 = getelementptr inbounds nuw %struct._zend_string, ptr %14, i32 0, i32 2
  %16 = load i64, ptr %15, align 8, !tbaa !63
  %17 = getelementptr inbounds nuw i8, ptr %13, i64 %16
  %18 = getelementptr inbounds i8, ptr %17, i64 -5
  %19 = call i32 @memcmp(ptr noundef %18, ptr noundef @.str.20, i64 noundef 5) #22
  %20 = icmp ne i32 %19, 0
  br i1 %20, label %28, label %21

21:                                               ; preds = %10
  %22 = load ptr, ptr %2, align 8, !tbaa !52
  %23 = getelementptr inbounds nuw %struct._zend_string, ptr %22, i32 0, i32 3
  %24 = getelementptr inbounds [1 x i8], ptr %23, i64 0, i64 0
  %25 = call ptr @strstr(ptr noundef %24, ptr noundef @.str.21) #22
  %26 = icmp ne ptr %25, null
  %27 = xor i1 %26, true
  br label %28

28:                                               ; preds = %21, %10, %5, %1
  %29 = phi i1 [ false, %10 ], [ false, %5 ], [ false, %1 ], [ %27, %21 ]
  ret i1 %29
}

; Function Attrs: nounwind uwtable
define internal void @bzero_aligned(ptr noundef %0, i64 noundef %1) #0 {
  %3 = alloca ptr, align 8
  %4 = alloca i64, align 8
  store ptr %0, ptr %3, align 8, !tbaa !40
  store i64 %1, ptr %4, align 8, !tbaa !56
  %5 = load ptr, ptr %3, align 8, !tbaa !40
  %6 = load i64, ptr %4, align 8, !tbaa !56
  call void @llvm.memset.p0.i64(ptr align 1 %5, i8 0, i64 %6, i1 false)
  ret void
}

; Function Attrs: inlinehint nounwind uwtable
define internal ptr @zend_shared_alloc_aligned(i64 noundef %0) #8 {
  %2 = alloca i64, align 8
  %3 = alloca ptr, align 8
  store i64 %0, ptr %2, align 8, !tbaa !56
  call void @llvm.lifetime.start.p0(i64 8, ptr %3) #19
  %4 = load i64, ptr %2, align 8, !tbaa !56
  %5 = add i64 %4, 64
  %6 = call ptr @zend_shared_alloc(i64 noundef %5)
  store ptr %6, ptr %3, align 8, !tbaa !40
  %7 = load ptr, ptr %3, align 8, !tbaa !40
  %8 = ptrtoint ptr %7 to i64
  %9 = add i64 %8, 63
  %10 = and i64 %9, -64
  %11 = inttoptr i64 %10 to ptr
  call void @llvm.lifetime.end.p0(i64 8, ptr %3) #19
  ret ptr %11
}

; Function Attrs: inlinehint nounwind uwtable
define internal zeroext i1 @zend_accel_hash_is_full(ptr noundef %0) #8 {
  %2 = alloca i1, align 1
  %3 = alloca ptr, align 8
  store ptr %0, ptr %3, align 8, !tbaa !308
  %4 = load ptr, ptr %3, align 8, !tbaa !308
  %5 = getelementptr inbounds nuw %struct._zend_accel_hash, ptr %4, i32 0, i32 2
  %6 = load i32, ptr %5, align 8, !tbaa !310
  %7 = load ptr, ptr %3, align 8, !tbaa !308
  %8 = getelementptr inbounds nuw %struct._zend_accel_hash, ptr %7, i32 0, i32 3
  %9 = load i32, ptr %8, align 4, !tbaa !311
  %10 = icmp eq i32 %6, %9
  br i1 %10, label %11, label %12

11:                                               ; preds = %1
  store i1 true, ptr %2, align 1
  br label %13

12:                                               ; preds = %1
  store i1 false, ptr %2, align 1
  br label %13

13:                                               ; preds = %12, %11
  %14 = load i1, ptr %2, align 1
  ret i1 %14
}

; Function Attrs: nounwind uwtable
define internal ptr @preload_script_in_shared_memory(ptr noundef %0) #0 {
  %2 = alloca ptr, align 8
  %3 = alloca ptr, align 8
  %4 = alloca i32, align 4
  %5 = alloca i32, align 4
  store ptr %0, ptr %2, align 8, !tbaa !136
  call void @llvm.lifetime.start.p0(i64 8, ptr %3) #19
  call void @llvm.lifetime.start.p0(i64 4, ptr %4) #19
  call void @llvm.lifetime.start.p0(i64 4, ptr %5) #19
  %6 = load ptr, ptr @accel_shared_globals, align 8, !tbaa !29
  %7 = getelementptr inbounds nuw %struct._zend_accel_shared_globals, ptr %6, i32 0, i32 6
  %8 = call zeroext i1 @zend_accel_hash_is_full(ptr noundef %7)
  br i1 %8, label %9, label %10

9:                                                ; preds = %1
  call void (i32, ptr, ...) @zend_accel_error_noreturn(i32 noundef 0, ptr noundef @.str.99) #24
  unreachable

10:                                               ; preds = %1
  %11 = call i32 @zend_shared_alloc_checkpoint_xlat_table()
  store i32 %11, ptr %5, align 4, !tbaa !4
  %12 = load ptr, ptr %2, align 8, !tbaa !136
  %13 = call i32 @zend_accel_script_persist_calc(ptr noundef %12, i32 noundef 1)
  store i32 %13, ptr %4, align 4, !tbaa !4
  %14 = load i32, ptr %4, align 4, !tbaa !4
  %15 = zext i32 %14 to i64
  %16 = call ptr @zend_shared_alloc_aligned(i64 noundef %15)
  store ptr %16, ptr getelementptr inbounds nuw (%struct._zend_accel_globals, ptr @accel_globals, i32 0, i32 19), align 8, !tbaa !249
  %17 = load ptr, ptr getelementptr inbounds nuw (%struct._zend_accel_globals, ptr @accel_globals, i32 0, i32 19), align 8, !tbaa !249
  %18 = icmp ne ptr %17, null
  br i1 %18, label %20, label %19

19:                                               ; preds = %10
  call void (i32, ptr, ...) @zend_accel_error_noreturn(i32 noundef 0, ptr noundef @.str.100) #24
  unreachable

20:                                               ; preds = %10
  %21 = load ptr, ptr getelementptr inbounds nuw (%struct._zend_accel_globals, ptr @accel_globals, i32 0, i32 19), align 8, !tbaa !249
  %22 = load i32, ptr %4, align 4, !tbaa !4
  %23 = zext i32 %22 to i64
  call void @bzero_aligned(ptr noundef %21, i64 noundef %23)
  %24 = load i32, ptr %5, align 4, !tbaa !4
  call void @zend_shared_alloc_restore_xlat_table(i32 noundef %24)
  %25 = load ptr, ptr %2, align 8, !tbaa !136
  %26 = call ptr @zend_accel_script_persist(ptr noundef %25, i32 noundef 1)
  store ptr %26, ptr %2, align 8, !tbaa !136
  %27 = load ptr, ptr %2, align 8, !tbaa !136
  %28 = getelementptr inbounds nuw %struct._zend_persistent_script, ptr %27, i32 0, i32 0
  %29 = getelementptr inbounds nuw %struct._zend_script, ptr %28, i32 0, i32 0
  %30 = load ptr, ptr %29, align 8, !tbaa !153
  %31 = call zeroext i1 @is_phar_file(ptr noundef %30)
  %32 = load ptr, ptr %2, align 8, !tbaa !136
  %33 = getelementptr inbounds nuw %struct._zend_persistent_script, ptr %32, i32 0, i32 5
  %34 = zext i1 %31 to i8
  store i8 %34, ptr %33, align 1, !tbaa !190
  %35 = load ptr, ptr %2, align 8, !tbaa !136
  %36 = getelementptr inbounds nuw %struct._zend_persistent_script, ptr %35, i32 0, i32 11
  %37 = load ptr, ptr %36, align 8, !tbaa !250
  %38 = load ptr, ptr %2, align 8, !tbaa !136
  %39 = getelementptr inbounds nuw %struct._zend_persistent_script, ptr %38, i32 0, i32 12
  %40 = load i64, ptr %39, align 8, !tbaa !251
  %41 = getelementptr inbounds nuw i8, ptr %37, i64 %40
  %42 = load ptr, ptr getelementptr inbounds nuw (%struct._zend_accel_globals, ptr @accel_globals, i32 0, i32 19), align 8, !tbaa !249
  %43 = icmp ne ptr %41, %42
  br i1 %43, label %44, label %75

44:                                               ; preds = %20
  %45 = load ptr, ptr %2, align 8, !tbaa !136
  %46 = getelementptr inbounds nuw %struct._zend_persistent_script, ptr %45, i32 0, i32 11
  %47 = load ptr, ptr %46, align 8, !tbaa !250
  %48 = load ptr, ptr %2, align 8, !tbaa !136
  %49 = getelementptr inbounds nuw %struct._zend_persistent_script, ptr %48, i32 0, i32 12
  %50 = load i64, ptr %49, align 8, !tbaa !251
  %51 = getelementptr inbounds nuw i8, ptr %47, i64 %50
  %52 = load ptr, ptr getelementptr inbounds nuw (%struct._zend_accel_globals, ptr @accel_globals, i32 0, i32 19), align 8, !tbaa !249
  %53 = icmp ult ptr %51, %52
  %54 = select i1 %53, i32 1, i32 2
  %55 = load ptr, ptr %2, align 8, !tbaa !136
  %56 = getelementptr inbounds nuw %struct._zend_persistent_script, ptr %55, i32 0, i32 0
  %57 = getelementptr inbounds nuw %struct._zend_script, ptr %56, i32 0, i32 0
  %58 = load ptr, ptr %57, align 8, !tbaa !153
  %59 = getelementptr inbounds nuw %struct._zend_string, ptr %58, i32 0, i32 3
  %60 = getelementptr inbounds [1 x i8], ptr %59, i64 0, i64 0
  %61 = load ptr, ptr %2, align 8, !tbaa !136
  %62 = getelementptr inbounds nuw %struct._zend_persistent_script, ptr %61, i32 0, i32 11
  %63 = load ptr, ptr %62, align 8, !tbaa !250
  %64 = ptrtoint ptr %63 to i64
  %65 = load ptr, ptr %2, align 8, !tbaa !136
  %66 = getelementptr inbounds nuw %struct._zend_persistent_script, ptr %65, i32 0, i32 11
  %67 = load ptr, ptr %66, align 8, !tbaa !250
  %68 = load ptr, ptr %2, align 8, !tbaa !136
  %69 = getelementptr inbounds nuw %struct._zend_persistent_script, ptr %68, i32 0, i32 12
  %70 = load i64, ptr %69, align 8, !tbaa !251
  %71 = getelementptr inbounds nuw i8, ptr %67, i64 %70
  %72 = ptrtoint ptr %71 to i64
  %73 = load ptr, ptr getelementptr inbounds nuw (%struct._zend_accel_globals, ptr @accel_globals, i32 0, i32 19), align 8, !tbaa !249
  %74 = ptrtoint ptr %73 to i64
  call void (i32, ptr, ...) @zend_accel_error(i32 noundef %54, ptr noundef @.str.19, ptr noundef %60, i64 noundef %64, i64 noundef %72, i64 noundef %74)
  br label %75

75:                                               ; preds = %44, %20
  %76 = load ptr, ptr @accel_shared_globals, align 8, !tbaa !29
  %77 = getelementptr inbounds nuw %struct._zend_accel_shared_globals, ptr %76, i32 0, i32 6
  %78 = load ptr, ptr %2, align 8, !tbaa !136
  %79 = getelementptr inbounds nuw %struct._zend_persistent_script, ptr %78, i32 0, i32 0
  %80 = getelementptr inbounds nuw %struct._zend_script, ptr %79, i32 0, i32 0
  %81 = load ptr, ptr %80, align 8, !tbaa !153
  %82 = load ptr, ptr %2, align 8, !tbaa !136
  %83 = call ptr @zend_accel_hash_update(ptr noundef %77, ptr noundef %81, i1 noundef zeroext false, ptr noundef %82)
  store ptr %83, ptr %3, align 8, !tbaa !176
  %84 = load ptr, ptr %3, align 8, !tbaa !176
  %85 = icmp ne ptr %84, null
  br i1 %85, label %86, label %93

86:                                               ; preds = %75
  %87 = load ptr, ptr %2, align 8, !tbaa !136
  %88 = getelementptr inbounds nuw %struct._zend_persistent_script, ptr %87, i32 0, i32 0
  %89 = getelementptr inbounds nuw %struct._zend_script, ptr %88, i32 0, i32 0
  %90 = load ptr, ptr %89, align 8, !tbaa !153
  %91 = getelementptr inbounds nuw %struct._zend_string, ptr %90, i32 0, i32 3
  %92 = getelementptr inbounds [1 x i8], ptr %91, i64 0, i64 0
  call void (i32, ptr, ...) @zend_accel_error(i32 noundef 3, ptr noundef @.str.28, ptr noundef %92)
  br label %93

93:                                               ; preds = %86, %75
  %94 = load ptr, ptr %2, align 8, !tbaa !136
  %95 = getelementptr inbounds nuw %struct._zend_persistent_script, ptr %94, i32 0, i32 12
  %96 = load i64, ptr %95, align 8, !tbaa !251
  %97 = add i64 %96, 7
  %98 = and i64 %97, -8
  %99 = trunc i64 %98 to i32
  %100 = load ptr, ptr %2, align 8, !tbaa !136
  %101 = getelementptr inbounds nuw %struct._zend_persistent_script, ptr %100, i32 0, i32 13
  %102 = getelementptr inbounds nuw %struct.zend_persistent_script_dynamic_members, ptr %101, i32 0, i32 2
  store i32 %99, ptr %102, align 8, !tbaa !252
  %103 = load ptr, ptr %2, align 8, !tbaa !136
  call void @llvm.lifetime.end.p0(i64 4, ptr %5) #19
  call void @llvm.lifetime.end.p0(i64 4, ptr %4) #19
  call void @llvm.lifetime.end.p0(i64 8, ptr %3) #19
  ret ptr %103
}