; Function Attrs: nounwind uwtable
define internal fastcc noundef ptr @preload_script_in_shared_memory(ptr noundef %0) unnamed_addr #0 {
  %2 = load ptr, ptr @accel_shared_globals, align 8, !tbaa !28
  %3 = getelementptr i8, ptr %2, i64 64
  %.val = load i32, ptr %3, align 8, !tbaa !159
  %4 = getelementptr i8, ptr %2, i64 68
  %.val25 = load i32, ptr %4, align 4, !tbaa !160
  %5 = icmp eq i32 %.val, %.val25
  br i1 %5, label %6, label %7

6:                                                ; preds = %1
  tail call void (i32, ptr, ...) @zend_accel_error_noreturn(i32 noundef 0, ptr noundef nonnull @.str.99) #31
  unreachable

7:                                                ; preds = %1
  %8 = tail call i32 @zend_shared_alloc_checkpoint_xlat_table() #26
  %9 = tail call i32 @zend_accel_script_persist_calc(ptr noundef %0, i32 noundef 1) #26
  %10 = zext i32 %9 to i64
  %11 = add nuw nsw i64 %10, 64
  %12 = tail call ptr @zend_shared_alloc(i64 noundef %11) #26
  %13 = ptrtoint ptr %12 to i64
  %14 = add i64 %13, 63
  %15 = and i64 %14, -64
  %16 = inttoptr i64 %15 to ptr
  store ptr %16, ptr getelementptr inbounds nuw (i8, ptr @accel_globals, i64 368), align 8, !tbaa !246
  %.not = icmp eq i64 %15, 0
  br i1 %.not, label %17, label %18

17:                                               ; preds = %7
  tail call void (i32, ptr, ...) @zend_accel_error_noreturn(i32 noundef 0, ptr noundef nonnull @.str.100) #31
  unreachable

18:                                               ; preds = %7
  tail call void @llvm.memset.p0.i64(ptr nonnull align 64 %16, i8 0, i64 range(i64 0, 4294967296) %10, i1 false)
  tail call void @zend_shared_alloc_restore_xlat_table(i32 noundef %8) #26
  %19 = tail call ptr @zend_accel_script_persist(ptr noundef %0, i32 noundef 1) #26
  %20 = load ptr, ptr %19, align 8, !tbaa !141
  %.not.i = icmp eq ptr %20, null
  br i1 %.not.i, label %is_phar_file.exit, label %21

21:                                               ; preds = %18
  %22 = getelementptr inbounds nuw i8, ptr %20, i64 16
  %23 = load i64, ptr %22, align 8, !tbaa !60
  %24 = icmp ugt i64 %23, 5
  br i1 %24, label %25, label %is_phar_file.exit

25:                                               ; preds = %21
  %26 = getelementptr inbounds nuw i8, ptr %20, i64 24
  %27 = getelementptr inbounds nuw i8, ptr %26, i64 %23
  %28 = getelementptr inbounds i8, ptr %27, i64 -5
  %bcmp.i = tail call i32 @bcmp(ptr noundef nonnull dereferenceable(5) %28, ptr noundef nonnull dereferenceable(5) @.str.20, i64 5)
  %.not6.i = icmp eq i32 %bcmp.i, 0
  br i1 %.not6.i, label %29, label %is_phar_file.exit

29:                                               ; preds = %25
  %30 = tail call ptr @strstr(ptr noundef nonnull dereferenceable(1) %26, ptr noundef nonnull dereferenceable(1) @.str.21) #29
  %.not7.i = icmp eq ptr %30, null
  %31 = zext i1 %.not7.i to i8
  br label %is_phar_file.exit

is_phar_file.exit:                                ; preds = %18, %21, %25, %29
  %32 = phi i8 [ 0, %25 ], [ 0, %21 ], [ 0, %18 ], [ %31, %29 ]
  %33 = getelementptr inbounds nuw i8, ptr %19, i64 401
  store i8 %32, ptr %33, align 1, !tbaa !189
  %34 = getelementptr inbounds nuw i8, ptr %19, i64 432
  %35 = load ptr, ptr %34, align 8, !tbaa !247
  %36 = getelementptr inbounds nuw i8, ptr %19, i64 440
  %37 = load i64, ptr %36, align 8, !tbaa !248
  %38 = getelementptr inbounds nuw i8, ptr %35, i64 %37
  %39 = load ptr, ptr getelementptr inbounds nuw (i8, ptr @accel_globals, i64 368), align 8, !tbaa !246
  %.not23 = icmp eq ptr %38, %39
  br i1 %.not23, label %47, label %40

40:                                               ; preds = %is_phar_file.exit
  %41 = icmp ult ptr %38, %39
  %42 = select i1 %41, i32 1, i32 2
  %43 = getelementptr inbounds nuw i8, ptr %20, i64 24
  %44 = ptrtoint ptr %35 to i64
  %45 = ptrtoint ptr %38 to i64
  %46 = ptrtoint ptr %39 to i64
  tail call void (i32, ptr, ...) @zend_accel_error(i32 noundef %42, ptr noundef nonnull @.str.19, ptr noundef nonnull %43, i64 noundef %44, i64 noundef %45, i64 noundef %46) #26
  %.pre = load ptr, ptr %19, align 8, !tbaa !141
  br label %47

47:                                               ; preds = %40, %is_phar_file.exit
  %48 = phi ptr [ %.pre, %40 ], [ %20, %is_phar_file.exit ]
  %49 = load ptr, ptr @accel_shared_globals, align 8, !tbaa !28
  %50 = getelementptr inbounds nuw i8, ptr %49, i64 48
  %51 = tail call ptr @zend_accel_hash_update(ptr noundef nonnull %50, ptr noundef %48, i1 noundef zeroext false, ptr noundef nonnull %19) #26
  %.not24 = icmp eq ptr %51, null
  br i1 %.not24, label %55, label %52

52:                                               ; preds = %47
  %53 = load ptr, ptr %19, align 8, !tbaa !141
  %54 = getelementptr inbounds nuw i8, ptr %53, i64 24
  tail call void (i32, ptr, ...) @zend_accel_error(i32 noundef 3, ptr noundef nonnull @.str.28, ptr noundef nonnull %54) #26
  br label %55

55:                                               ; preds = %52, %47
  %56 = load i64, ptr %36, align 8, !tbaa !248
  %57 = trunc i64 %56 to i32
  %58 = add i32 %57, 7
  %59 = and i32 %58, -8
  %60 = getelementptr inbounds nuw i8, ptr %19, i64 464
  store i32 %59, ptr %60, align 8, !tbaa !157
  ret ptr %19
}